target datalayout = "e-m:e-p270:32:32-p271:32:32-p272:64:64-i64:64-i128:128-f80:128-n8:16:32:64-S128"
target triple = "x86_64-unknown-linux-gnu"

%"class.Assimp::STLExporter" = type { %"class.std::__cxx11::basic_ostringstream", %"class.std::__cxx11::basic_string", %"class.std::__cxx11::basic_string" }
%"class.std::__cxx11::basic_ostringstream" = type { %"class.std::basic_ostream.base", %"class.std::__cxx11::basic_stringbuf", %"class.std::basic_ios" }
%"class.std::basic_ostream.base" = type { ptr }
%"class.std::__cxx11::basic_stringbuf" = type { %"class.std::basic_streambuf", i32, %"class.std::__cxx11::basic_string" }
%"class.std::basic_streambuf" = type { ptr, ptr, ptr, ptr, ptr, ptr, ptr, %"class.std::locale" }
%"class.std::locale" = type { ptr }
%"class.std::basic_ios" = type { %"class.std::ios_base", ptr, i8, i8, ptr, ptr, ptr, ptr }
%"class.std::ios_base" = type { ptr, i64, i64, i32, i32, i32, ptr, %"struct.std::ios_base::_Words", [8 x %"struct.std::ios_base::_Words"], i32, ptr, %"class.std::locale" }
%"struct.std::ios_base::_Words" = type { ptr, i64 }
%"class.std::__cxx11::basic_string" = type { %"struct.std::__cxx11::basic_string<char>::_Alloc_hider", i64, %union.anon }
%"struct.std::__cxx11::basic_string<char>::_Alloc_hider" = type { ptr }
%union.anon = type { i64, [8 x i8] }
%struct.aiString = type { i32, [1024 x i8] }
%struct.aiMesh = type { i32, i32, i32, ptr, ptr, ptr, ptr, [8 x ptr], [8 x ptr], [8 x i32], ptr, i32, ptr, i32, %struct.aiString, i32, ptr, i32, %struct.aiAABB, ptr }
%struct.aiAABB = type { %class.aiVector3t, %class.aiVector3t }
%class.aiVector3t = type { float, float, float }
%struct.aiFace = type { i32, ptr }

; Function Attrs: mustprogress nounwind uwtable
define linkonce_odr noundef float @_ZSt4sqrtf(float noundef %__x) #0 comdat {
entry:
  %__x.addr = alloca float, align 4
  store float %__x, ptr %__x.addr, align 4
  %0 = load float, ptr %__x.addr, align 4
  %call = call float @sqrtf(float noundef %0) #11
  ret float %call
}

; Function Attrs: mustprogress nounwind uwtable
define linkonce_odr hidden noundef float @_ZNK10aiVector3tIfE12SquareLengthEv(ptr noundef nonnull align 4 dereferenceable(12) %this) #0 comdat align 2 {
entry:
  %this.addr = alloca ptr, align 8
  store ptr %this, ptr %this.addr, align 8
  %this1 = load ptr, ptr %this.addr, align 8
  %x = getelementptr inbounds %class.aiVector3t, ptr %this1, i32 0, i32 0
  %0 = load float, ptr %x, align 4
  %x2 = getelementptr inbounds %class.aiVector3t, ptr %this1, i32 0, i32 0
  %1 = load float, ptr %x2, align 4
  %y = getelementptr inbounds %class.aiVector3t, ptr %this1, i32 0, i32 1
  %2 = load float, ptr %y, align 4
  %y3 = getelementptr inbounds %class.aiVector3t, ptr %this1, i32 0, i32 1
  %3 = load float, ptr %y3, align 4
  %mul4 = fmul float %2, %3
  %4 = call float @llvm.fmuladd.f32(float %0, float %1, float %mul4)
  %z = getelementptr inbounds %class.aiVector3t, ptr %this1, i32 0, i32 2
  %5 = load float, ptr %z, align 4
  %z5 = getelementptr inbounds %class.aiVector3t, ptr %this1, i32 0, i32 2
  %6 = load float, ptr %z5, align 4
  %7 = call float @llvm.fmuladd.f32(float %5, float %6, float %4)
  ret float %7
}

; Function Attrs: mustprogress nounwind uwtable
define linkonce_odr hidden noundef nonnull align 4 dereferenceable(12) ptr @_ZN10aiVector3tIfEdVEf(ptr noundef nonnull align 4 dereferenceable(12) %this, float noundef %f) #0 comdat align 2 {
entry:
  %retval = alloca ptr, align 8
  %this.addr = alloca ptr, align 8
  %f.addr = alloca float, align 4
  %invF = alloca float, align 4
  store ptr %this, ptr %this.addr, align 8
  store float %f, ptr %f.addr, align 4
  %this1 = load ptr, ptr %this.addr, align 8
  %0 = load float, ptr %f.addr, align 4
  %cmp = fcmp oeq float %0, 0.000000e+00
  br i1 %cmp, label %if.then, label %if.end

if.then:                                          ; preds = %entry
  store ptr %this1, ptr %retval, align 8
  br label %return

if.end:                                           ; preds = %entry
  %1 = load float, ptr %f.addr, align 4
  %div = fdiv float 1.000000e+00, %1
  store float %div, ptr %invF, align 4
  %2 = load float, ptr %invF, align 4
  %x = getelementptr inbounds %class.aiVector3t, ptr %this1, i32 0, i32 0
  %3 = load float, ptr %x, align 4
  %mul = fmul float %3, %2
  store float %mul, ptr %x, align 4
  %4 = load float, ptr %invF, align 4
  %y = getelementptr inbounds %class.aiVector3t, ptr %this1, i32 0, i32 1
  %5 = load float, ptr %y, align 4
  %mul2 = fmul float %5, %4
  store float %mul2, ptr %y, align 4
  %6 = load float, ptr %invF, align 4
  %z = getelementptr inbounds %class.aiVector3t, ptr %this1, i32 0, i32 2
  %7 = load float, ptr %z, align 4
  %mul3 = fmul float %7, %6
  store float %mul3, ptr %z, align 4
  store ptr %this1, ptr %retval, align 8
  br label %return

return:                                           ; preds = %if.end, %if.then
  %8 = load ptr, ptr %retval, align 8
  ret ptr %8
}

; Function Attrs: mustprogress uwtable
define linkonce_odr hidden noundef float @_ZNK10aiVector3tIfE6LengthEv(ptr noundef nonnull align 4 dereferenceable(12) %this) #2 comdat align 2 {
entry:
  %this.addr = alloca ptr, align 8
  store ptr %this, ptr %this.addr, align 8
  %this1 = load ptr, ptr %this.addr, align 8
  %call = call noundef float @_ZNK10aiVector3tIfE12SquareLengthEv(ptr noundef nonnull align 4 dereferenceable(12) %this1)
  %call2 = call noundef float @_ZSt4sqrtf(float noundef %call)
  ret float %call2
}

; Function Attrs: mustprogress uwtable
define linkonce_odr hidden noundef nonnull align 4 dereferenceable(12) ptr @_ZN10aiVector3tIfE9NormalizeEv(ptr noundef nonnull align 4 dereferenceable(12) %this) #2 comdat align 2 {
entry:
  %retval = alloca ptr, align 8
  %this.addr = alloca ptr, align 8
  %l = alloca float, align 4
  store ptr %this, ptr %this.addr, align 8
  %this1 = load ptr, ptr %this.addr, align 8
  %call = call noundef float @_ZNK10aiVector3tIfE6LengthEv(ptr noundef nonnull align 4 dereferenceable(12) %this1)
  store float %call, ptr %l, align 4
  %0 = load float, ptr %l, align 4
  %cmp = fcmp oeq float %0, 0.000000e+00
  br i1 %cmp, label %if.then, label %if.end

if.then:                                          ; preds = %entry
  store ptr %this1, ptr %retval, align 8
  br label %return

if.end:                                           ; preds = %entry
  %call2 = call noundef float @_ZNK10aiVector3tIfE6LengthEv(ptr noundef nonnull align 4 dereferenceable(12) %this1)
  %call3 = call noundef nonnull align 4 dereferenceable(12) ptr @_ZN10aiVector3tIfEdVEf(ptr noundef nonnull align 4 dereferenceable(12) %this1, float noundef %call2)
  store ptr %this1, ptr %retval, align 8
  br label %return

return:                                           ; preds = %if.end, %if.then
  %1 = load ptr, ptr %retval, align 8
  ret ptr %1
}

; Function Attrs: mustprogress nounwind uwtable
define linkonce_odr hidden noundef nonnull align 4 dereferenceable(12) ptr @_ZN10aiVector3tIfEpLERKS0_(ptr noundef nonnull align 4 dereferenceable(12) %this, ptr noundef nonnull align 4 dereferenceable(12) %o) #0 comdat align 2 {
entry:
  %this.addr = alloca ptr, align 8
  %o.addr = alloca ptr, align 8
  store ptr %this, ptr %this.addr, align 8
  store ptr %o, ptr %o.addr, align 8
  %this1 = load ptr, ptr %this.addr, align 8
  %0 = load ptr, ptr %o.addr, align 8
  %x = getelementptr inbounds %class.aiVector3t, ptr %0, i32 0, i32 0
  %1 = load float, ptr %x, align 4
  %x2 = getelementptr inbounds %class.aiVector3t, ptr %this1, i32 0, i32 0
  %2 = load float, ptr %x2, align 4
  %add = fadd float %2, %1
  store float %add, ptr %x2, align 4
  %3 = load ptr, ptr %o.addr, align 8
  %y = getelementptr inbounds %class.aiVector3t, ptr %3, i32 0, i32 1
  %4 = load float, ptr %y, align 4
  %y3 = getelementptr inbounds %class.aiVector3t, ptr %this1, i32 0, i32 1
  %5 = load float, ptr %y3, align 4
  %add4 = fadd float %5, %4
  store float %add4, ptr %y3, align 4
  %6 = load ptr, ptr %o.addr, align 8
  %z = getelementptr inbounds %class.aiVector3t, ptr %6, i32 0, i32 2
  %7 = load float, ptr %z, align 4
  %z5 = getelementptr inbounds %class.aiVector3t, ptr %this1, i32 0, i32 2
  %8 = load float, ptr %z5, align 4
  %add6 = fadd float %8, %7
  store float %add6, ptr %z5, align 4
  ret ptr %this1
}

; Function Attrs: mustprogress nounwind uwtable
define linkonce_odr hidden void @_ZN10aiVector3tIfEC2Ev(ptr noundef nonnull align 4 dereferenceable(12) %this) unnamed_addr #0 comdat align 2 {
entry:
  %this.addr = alloca ptr, align 8
  store ptr %this, ptr %this.addr, align 8
  %this1 = load ptr, ptr %this.addr, align 8
  %x = getelementptr inbounds %class.aiVector3t, ptr %this1, i32 0, i32 0
  store float 0.000000e+00, ptr %x, align 4
  %y = getelementptr inbounds %class.aiVector3t, ptr %this1, i32 0, i32 1
  store float 0.000000e+00, ptr %y, align 4
  %z = getelementptr inbounds %class.aiVector3t, ptr %this1, i32 0, i32 2
  store float 0.000000e+00, ptr %z, align 4
  ret void
}

; Function Attrs: mustprogress uwtable
define hidden void @_ZN6Assimp11STLExporter15WriteMeshBinaryEPK6aiMesh(ptr noundef nonnull align 8 dereferenceable(440) %this, ptr noundef %m) #2 align 2 {
entry:
  %this.addr = alloca ptr, align 8
  %m.addr = alloca ptr, align 8
  %i = alloca i32, align 4
  %f = alloca ptr, align 8
  %nor = alloca %class.aiVector3t, align 4
  %a = alloca i32, align 4
  %nx = alloca float, align 4
  %ny = alloca float, align 4
  %nz = alloca float, align 4
  %a16 = alloca i32, align 4
  %v = alloca ptr, align 8
  %vx = alloca float, align 4
  %vy = alloca float, align 4
  %vz = alloca float, align 4
  %dummy = alloca [2 x i8], align 1
  store ptr %this, ptr %this.addr, align 8
  store ptr %m, ptr %m.addr, align 8
  %this1 = load ptr, ptr %this.addr, align 8
  store i32 0, ptr %i, align 4
  br label %for.cond

for.cond:                                         ; preds = %for.inc40, %entry
  %0 = load i32, ptr %i, align 4
  %1 = load ptr, ptr %m.addr, align 8
  %mNumFaces = getelementptr inbounds %struct.aiMesh, ptr %1, i32 0, i32 2
  %2 = load i32, ptr %mNumFaces, align 8
  %cmp = icmp ult i32 %0, %2
  br i1 %cmp, label %for.body, label %for.end42

for.body:                                         ; preds = %for.cond
  %3 = load ptr, ptr %m.addr, align 8
  %mFaces = getelementptr inbounds %struct.aiMesh, ptr %3, i32 0, i32 10
  %4 = load ptr, ptr %mFaces, align 8
  %5 = load i32, ptr %i, align 4
  %idxprom = zext i32 %5 to i64
  %arrayidx = getelementptr inbounds %struct.aiFace, ptr %4, i64 %idxprom
  store ptr %arrayidx, ptr %f, align 8
  call void @_ZN10aiVector3tIfEC2Ev(ptr noundef nonnull align 4 dereferenceable(12) %nor) #11
  %6 = load ptr, ptr %m.addr, align 8
  %mNormals = getelementptr inbounds %struct.aiMesh, ptr %6, i32 0, i32 4
  %7 = load ptr, ptr %mNormals, align 8
  %tobool = icmp ne ptr %7, null
  br i1 %tobool, label %if.then, label %if.end

if.then:                                          ; preds = %for.body
  store i32 0, ptr %a, align 4
  br label %for.cond2

for.cond2:                                        ; preds = %for.inc, %if.then
  %8 = load i32, ptr %a, align 4
  %9 = load ptr, ptr %f, align 8
  %mNumIndices = getelementptr inbounds %struct.aiFace, ptr %9, i32 0, i32 0
  %10 = load i32, ptr %mNumIndices, align 8
  %cmp3 = icmp ult i32 %8, %10
  br i1 %cmp3, label %for.body4, label %for.end

for.body4:                                        ; preds = %for.cond2
  %11 = load ptr, ptr %m.addr, align 8
  %mNormals5 = getelementptr inbounds %struct.aiMesh, ptr %11, i32 0, i32 4
  %12 = load ptr, ptr %mNormals5, align 8
  %13 = load ptr, ptr %f, align 8
  %mIndices = getelementptr inbounds %struct.aiFace, ptr %13, i32 0, i32 1
  %14 = load ptr, ptr %mIndices, align 8
  %15 = load i32, ptr %a, align 4
  %idxprom6 = zext i32 %15 to i64
  %arrayidx7 = getelementptr inbounds i32, ptr %14, i64 %idxprom6
  %16 = load i32, ptr %arrayidx7, align 4
  %idxprom8 = zext i32 %16 to i64
  %arrayidx9 = getelementptr inbounds %class.aiVector3t, ptr %12, i64 %idxprom8
  %call = call noundef nonnull align 4 dereferenceable(12) ptr @_ZN10aiVector3tIfEpLERKS0_(ptr noundef nonnull align 4 dereferenceable(12) %nor, ptr noundef nonnull align 4 dereferenceable(12) %arrayidx9)
  br label %for.inc

for.inc:                                          ; preds = %for.body4
  %17 = load i32, ptr %a, align 4
  %inc = add i32 %17, 1
  store i32 %inc, ptr %a, align 4
  br label %for.cond2, !llvm.loop !9

for.end:                                          ; preds = %for.cond2
  %call10 = call noundef nonnull align 4 dereferenceable(12) ptr @_ZN10aiVector3tIfE9NormalizeEv(ptr noundef nonnull align 4 dereferenceable(12) %nor)
  br label %if.end

if.end:                                           ; preds = %for.end, %for.body
  %x = getelementptr inbounds %class.aiVector3t, ptr %nor, i32 0, i32 0
  %18 = load float, ptr %x, align 4
  store float %18, ptr %nx, align 4
  %y = getelementptr inbounds %class.aiVector3t, ptr %nor, i32 0, i32 1
  %19 = load float, ptr %y, align 4
  store float %19, ptr %ny, align 4
  %z = getelementptr inbounds %class.aiVector3t, ptr %nor, i32 0, i32 2
  %20 = load float, ptr %z, align 4
  store float %20, ptr %nz, align 4
  %mOutput = getelementptr inbounds %"class.Assimp::STLExporter", ptr %this1, i32 0, i32 0
  %call11 = call noundef nonnull align 8 dereferenceable(8) ptr @_ZNSo5writeEPKcl(ptr noundef nonnull align 8 dereferenceable(8) %mOutput, ptr noundef %nx, i64 noundef 4)
  %mOutput12 = getelementptr inbounds %"class.Assimp::STLExporter", ptr %this1, i32 0, i32 0
  %call13 = call noundef nonnull align 8 dereferenceable(8) ptr @_ZNSo5writeEPKcl(ptr noundef nonnull align 8 dereferenceable(8) %mOutput12, ptr noundef %ny, i64 noundef 4)
  %mOutput14 = getelementptr inbounds %"class.Assimp::STLExporter", ptr %this1, i32 0, i32 0
  %call15 = call noundef nonnull align 8 dereferenceable(8) ptr @_ZNSo5writeEPKcl(ptr noundef nonnull align 8 dereferenceable(8) %mOutput14, ptr noundef %nz, i64 noundef 4)
  store i32 0, ptr %a16, align 4
  br label %for.cond17

for.cond17:                                       ; preds = %for.inc35, %if.end
  %21 = load i32, ptr %a16, align 4
  %22 = load ptr, ptr %f, align 8
  %mNumIndices18 = getelementptr inbounds %struct.aiFace, ptr %22, i32 0, i32 0
  %23 = load i32, ptr %mNumIndices18, align 8
  %cmp19 = icmp ult i32 %21, %23
  br i1 %cmp19, label %for.body20, label %for.end37

for.body20:                                       ; preds = %for.cond17
  %24 = load ptr, ptr %m.addr, align 8
  %mVertices = getelementptr inbounds %struct.aiMesh, ptr %24, i32 0, i32 3
  %25 = load ptr, ptr %mVertices, align 8
  %26 = load ptr, ptr %f, align 8
  %mIndices21 = getelementptr inbounds %struct.aiFace, ptr %26, i32 0, i32 1
  %27 = load ptr, ptr %mIndices21, align 8
  %28 = load i32, ptr %a16, align 4
  %idxprom22 = zext i32 %28 to i64
  %arrayidx23 = getelementptr inbounds i32, ptr %27, i64 %idxprom22
  %29 = load i32, ptr %arrayidx23, align 4
  %idxprom24 = zext i32 %29 to i64
  %arrayidx25 = getelementptr inbounds %class.aiVector3t, ptr %25, i64 %idxprom24
  store ptr %arrayidx25, ptr %v, align 8
  %30 = load ptr, ptr %v, align 8
  %x26 = getelementptr inbounds %class.aiVector3t, ptr %30, i32 0, i32 0
  %31 = load float, ptr %x26, align 4
  store float %31, ptr %vx, align 4
  %32 = load ptr, ptr %v, align 8
  %y27 = getelementptr inbounds %class.aiVector3t, ptr %32, i32 0, i32 1
  %33 = load float, ptr %y27, align 4
  store float %33, ptr %vy, align 4
  %34 = load ptr, ptr %v, align 8
  %z28 = getelementptr inbounds %class.aiVector3t, ptr %34, i32 0, i32 2
  %35 = load float, ptr %z28, align 4
  store float %35, ptr %vz, align 4
  %mOutput29 = getelementptr inbounds %"class.Assimp::STLExporter", ptr %this1, i32 0, i32 0
  %call30 = call noundef nonnull align 8 dereferenceable(8) ptr @_ZNSo5writeEPKcl(ptr noundef nonnull align 8 dereferenceable(8) %mOutput29, ptr noundef %vx, i64 noundef 4)
  %mOutput31 = getelementptr inbounds %"class.Assimp::STLExporter", ptr %this1, i32 0, i32 0
  %call32 = call noundef nonnull align 8 dereferenceable(8) ptr @_ZNSo5writeEPKcl(ptr noundef nonnull align 8 dereferenceable(8) %mOutput31, ptr noundef %vy, i64 noundef 4)
  %mOutput33 = getelementptr inbounds %"class.Assimp::STLExporter", ptr %this1, i32 0, i32 0
  %call34 = call noundef nonnull align 8 dereferenceable(8) ptr @_ZNSo5writeEPKcl(ptr noundef nonnull align 8 dereferenceable(8) %mOutput33, ptr noundef %vz, i64 noundef 4)
  br label %for.inc35

for.inc35:                                        ; preds = %for.body20
  %36 = load i32, ptr %a16, align 4
  %inc36 = add i32 %36, 1
  store i32 %inc36, ptr %a16, align 4
  br label %for.cond17, !llvm.loop !10

for.end37:                                        ; preds = %for.cond17
  call void @llvm.memset.p0.i64(ptr align 1 %dummy, i8 0, i64 2, i1 false)
  %mOutput38 = getelementptr inbounds %"class.Assimp::STLExporter", ptr %this1, i32 0, i32 0
  %arraydecay = getelementptr inbounds [2 x i8], ptr %dummy, i64 0, i64 0
  %call39 = call noundef nonnull align 8 dereferenceable(8) ptr @_ZNSo5writeEPKcl(ptr noundef nonnull align 8 dereferenceable(8) %mOutput38, ptr noundef %arraydecay, i64 noundef 2)
  br label %for.inc40

for.inc40:                                        ; preds = %for.end37
  %37 = load i32, ptr %i, align 4
  %inc41 = add i32 %37, 1
  store i32 %inc41, ptr %i, align 4
  br label %for.cond, !llvm.loop !11

for.end42:                                        ; preds = %for.cond
  ret void
}