; Function Attrs: mustprogress uwtable
define hidden void @_ZN6Assimp11STLExporter15WriteMeshBinaryEPK6aiMesh(ptr noundef nonnull align 8 dereferenceable(440) %this, ptr nocapture noundef readonly %m) local_unnamed_addr #0 align 2 {
entry:
  %nx = alloca float, align 4
  %ny = alloca float, align 4
  %nz = alloca float, align 4
  %vx = alloca float, align 4
  %vy = alloca float, align 4
  %vz = alloca float, align 4
  %dummy = alloca [2 x i8], align 2
  %mNumFaces = getelementptr inbounds i8, ptr %m, i64 8
  %0 = load i32, ptr %mNumFaces, align 8
  %cmp33.not = icmp eq i32 %0, 0
  br i1 %cmp33.not, label %for.end42, label %for.body.lr.ph

for.body.lr.ph:                                   ; preds = %entry
  %mFaces = getelementptr inbounds i8, ptr %m, i64 208
  %mNormals = getelementptr inbounds i8, ptr %m, i64 24
  %mVertices = getelementptr inbounds i8, ptr %m, i64 16
  br label %for.body

for.body:                                         ; preds = %for.body.lr.ph, %for.end37
  %indvars.iv39 = phi i64 [ 0, %for.body.lr.ph ], [ %indvars.iv.next40, %for.end37 ]
  %1 = load ptr, ptr %mFaces, align 8
  %arrayidx = getelementptr inbounds %struct.aiFace, ptr %1, i64 %indvars.iv39
  %2 = load ptr, ptr %mNormals, align 8
  %tobool.not = icmp eq ptr %2, null
  br i1 %tobool.not, label %if.end, label %for.cond2.preheader

for.cond2.preheader:                              ; preds = %for.body
  %3 = load i32, ptr %arrayidx, align 8
  %cmp324.not = icmp eq i32 %3, 0
  br i1 %cmp324.not, label %for.end, label %for.body4.lr.ph

for.body4.lr.ph:                                  ; preds = %for.cond2.preheader
  %mIndices = getelementptr inbounds i8, ptr %arrayidx, i64 8
  %4 = load ptr, ptr %mIndices, align 8
  %wide.trip.count = zext i32 %3 to i64
  br label %for.body4

for.body4:                                        ; preds = %for.body4.lr.ph, %for.body4
  %indvars.iv = phi i64 [ 0, %for.body4.lr.ph ], [ %indvars.iv.next, %for.body4 ]
  %nor.sroa.12.025 = phi float [ 0.000000e+00, %for.body4.lr.ph ], [ %add6.i, %for.body4 ]
  %5 = phi <2 x float> [ zeroinitializer, %for.body4.lr.ph ], [ %8, %for.body4 ]
  %arrayidx7 = getelementptr inbounds i32, ptr %4, i64 %indvars.iv
  %6 = load i32, ptr %arrayidx7, align 4
  %idxprom8 = zext i32 %6 to i64
  %arrayidx9 = getelementptr inbounds %class.aiVector3t, ptr %2, i64 %idxprom8
  %7 = load <2 x float>, ptr %arrayidx9, align 4
  %8 = fadd <2 x float> %5, %7
  %z.i17 = getelementptr inbounds i8, ptr %arrayidx9, i64 8
  %9 = load float, ptr %z.i17, align 4
  %add6.i = fadd float %nor.sroa.12.025, %9
  %indvars.iv.next = add nuw nsw i64 %indvars.iv, 1
  %exitcond.not = icmp eq i64 %indvars.iv.next, %wide.trip.count
  br i1 %exitcond.not, label %for.end, label %for.body4, !llvm.loop !8

for.end:                                          ; preds = %for.body4, %for.cond2.preheader
  %nor.sroa.12.0.lcssa = phi float [ 0.000000e+00, %for.cond2.preheader ], [ %add6.i, %for.body4 ]
  %10 = phi <2 x float> [ zeroinitializer, %for.cond2.preheader ], [ %8, %for.body4 ]
  %11 = fmul <2 x float> %10, %10
  %mul4.i.i.i = extractelement <2 x float> %11, i64 1
  %12 = extractelement <2 x float> %10, i64 0
  %13 = call float @llvm.fmuladd.f32(float %12, float %12, float %mul4.i.i.i)
  %14 = call noundef float @llvm.fmuladd.f32(float %nor.sroa.12.0.lcssa, float %nor.sroa.12.0.lcssa, float %13)
  %sqrt.i.i = call noundef float @llvm.sqrt.f32(float %14)
  %cmp.i = fcmp oeq float %sqrt.i.i, 0.000000e+00
  br i1 %cmp.i, label %if.end, label %_ZN10aiVector3tIfEdVEf.exit.i

_ZN10aiVector3tIfEdVEf.exit.i:                    ; preds = %for.end
  %div.i.i = fdiv float 1.000000e+00, %sqrt.i.i
  %15 = insertelement <2 x float> poison, float %div.i.i, i64 0
  %16 = shufflevector <2 x float> %15, <2 x float> poison, <2 x i32> zeroinitializer
  %17 = fmul <2 x float> %10, %16
  %mul3.i.i = fmul float %nor.sroa.12.0.lcssa, %div.i.i
  br label %if.end

if.end:                                           ; preds = %_ZN10aiVector3tIfEdVEf.exit.i, %for.end, %for.body
  %nor.sroa.12.2 = phi float [ 0.000000e+00, %for.body ], [ %nor.sroa.12.0.lcssa, %for.end ], [ %mul3.i.i, %_ZN10aiVector3tIfEdVEf.exit.i ]
  %18 = phi <2 x float> [ zeroinitializer, %for.body ], [ %10, %for.end ], [ %17, %_ZN10aiVector3tIfEdVEf.exit.i ]
  %19 = extractelement <2 x float> %18, i64 0
  store float %19, ptr %nx, align 4
  %20 = extractelement <2 x float> %18, i64 1
  store float %20, ptr %ny, align 4
  store float %nor.sroa.12.2, ptr %nz, align 4
  %call11 = call noundef nonnull align 8 dereferenceable(8) ptr @_ZNSo5writeEPKcl(ptr noundef nonnull align 8 dereferenceable(8) %this, ptr noundef nonnull %nx, i64 noundef 4)
  %call13 = call noundef nonnull align 8 dereferenceable(8) ptr @_ZNSo5writeEPKcl(ptr noundef nonnull align 8 dereferenceable(8) %this, ptr noundef nonnull %ny, i64 noundef 4)
  %call15 = call noundef nonnull align 8 dereferenceable(8) ptr @_ZNSo5writeEPKcl(ptr noundef nonnull align 8 dereferenceable(8) %this, ptr noundef nonnull %nz, i64 noundef 4)
  %21 = load i32, ptr %arrayidx, align 8
  %cmp1931.not = icmp eq i32 %21, 0
  br i1 %cmp1931.not, label %for.end37, label %for.body20.lr.ph

for.body20.lr.ph:                                 ; preds = %if.end
  %mIndices21 = getelementptr inbounds i8, ptr %arrayidx, i64 8
  br label %for.body20

for.body20:                                       ; preds = %for.body20.lr.ph, %for.body20
  %indvars.iv36 = phi i64 [ 0, %for.body20.lr.ph ], [ %indvars.iv.next37, %for.body20 ]
  %22 = load ptr, ptr %mVertices, align 8
  %23 = load ptr, ptr %mIndices21, align 8
  %arrayidx23 = getelementptr inbounds i32, ptr %23, i64 %indvars.iv36
  %24 = load i32, ptr %arrayidx23, align 4
  %idxprom24 = zext i32 %24 to i64
  %arrayidx25 = getelementptr inbounds %class.aiVector3t, ptr %22, i64 %idxprom24
  %25 = load float, ptr %arrayidx25, align 4
  store float %25, ptr %vx, align 4
  %y27 = getelementptr inbounds i8, ptr %arrayidx25, i64 4
  %26 = load float, ptr %y27, align 4
  store float %26, ptr %vy, align 4
  %z28 = getelementptr inbounds i8, ptr %arrayidx25, i64 8
  %27 = load float, ptr %z28, align 4
  store float %27, ptr %vz, align 4
  %call30 = call noundef nonnull align 8 dereferenceable(8) ptr @_ZNSo5writeEPKcl(ptr noundef nonnull align 8 dereferenceable(8) %this, ptr noundef nonnull %vx, i64 noundef 4)
  %call32 = call noundef nonnull align 8 dereferenceable(8) ptr @_ZNSo5writeEPKcl(ptr noundef nonnull align 8 dereferenceable(8) %this, ptr noundef nonnull %vy, i64 noundef 4)
  %call34 = call noundef nonnull align 8 dereferenceable(8) ptr @_ZNSo5writeEPKcl(ptr noundef nonnull align 8 dereferenceable(8) %this, ptr noundef nonnull %vz, i64 noundef 4)
  %indvars.iv.next37 = add nuw nsw i64 %indvars.iv36, 1
  %28 = load i32, ptr %arrayidx, align 8
  %29 = zext i32 %28 to i64
  %cmp19 = icmp ult i64 %indvars.iv.next37, %29
  br i1 %cmp19, label %for.body20, label %for.end37, !llvm.loop !9

for.end37:                                        ; preds = %for.body20, %if.end
  store i16 0, ptr %dummy, align 2
  %call39 = call noundef nonnull align 8 dereferenceable(8) ptr @_ZNSo5writeEPKcl(ptr noundef nonnull align 8 dereferenceable(8) %this, ptr noundef nonnull %dummy, i64 noundef 2)
  %indvars.iv.next40 = add nuw nsw i64 %indvars.iv39, 1
  %30 = load i32, ptr %mNumFaces, align 8
  %31 = zext i32 %30 to i64
  %cmp = icmp ult i64 %indvars.iv.next40, %31
  br i1 %cmp, label %for.body, label %for.end42, !llvm.loop !10

for.end42:                                        ; preds = %for.end37, %entry
  ret void
}